; Function Attrs: mustprogress nounwind uwtable
define dso_local void @_ZN5clang16OMPClausePrinter24VisitOMPXAttributeClauseEPNS_19OMPXAttributeClauseE(ptr noundef nonnull readonly align 8 captures(none) dereferenceable(16) %0, ptr noundef %1) local_unnamed_addr #1 align 2 {
  %3 = load ptr, ptr %0, align 8
  %4 = getelementptr inbounds nuw i8, ptr %3, i64 24
  %5 = load ptr, ptr %4, align 8
  %6 = getelementptr inbounds nuw i8, ptr %3, i64 32
  %7 = load ptr, ptr %6, align 8
  %8 = ptrtoint ptr %5 to i64
  %9 = ptrtoint ptr %7 to i64
  %10 = sub i64 %8, %9
  %11 = icmp ult i64 %10, 15
  br i1 %11, label %12, label %14

12:                                               ; preds = %2
  %13 = tail call noundef nonnull align 8 dereferenceable(48) ptr @_ZN4llvm11raw_ostream5writeEPKcm(ptr noundef nonnull align 8 dereferenceable(48) %3, ptr noundef nonnull @.str.111, i64 noundef 15) #22
  br label %_ZN4llvm11raw_ostreamlsEPKc.exit

14:                                               ; preds = %2
  tail call void @llvm.memcpy.p0.p0.i64(ptr noundef nonnull align 1 dereferenceable(15) %7, ptr noundef nonnull align 1 dereferenceable(15) @.str.111, i64 15, i1 false)
  %15 = load ptr, ptr %6, align 8
  %16 = getelementptr inbounds nuw i8, ptr %15, i64 15
  store ptr %16, ptr %6, align 8
  br label %_ZN4llvm11raw_ostreamlsEPKc.exit

_ZN4llvm11raw_ostreamlsEPKc.exit:                 ; preds = %12, %14
  %17 = getelementptr inbounds nuw i8, ptr %1, i64 16
  %18 = load ptr, ptr %17, align 8
  %19 = tail call noundef i64 @_ZNK4llvm15SmallVectorBaseIjE4sizeEv(ptr noundef nonnull align 8 dereferenceable(16) %17) #22
  %20 = getelementptr inbounds ptr, ptr %18, i64 %19
  %.not17 = icmp eq i64 %19, 0
  br i1 %.not17, label %._crit_edge, label %.lr.ph

.lr.ph:                                           ; preds = %_ZN4llvm11raw_ostreamlsEPKc.exit
  %21 = getelementptr inbounds nuw i8, ptr %0, i64 8
  br label %22

22:                                               ; preds = %.lr.ph, %_ZN4llvm11raw_ostreamlsEPKc.exit12
  %.019 = phi i1 [ true, %.lr.ph ], [ false, %_ZN4llvm11raw_ostreamlsEPKc.exit12 ]
  %.0918 = phi ptr [ %18, %.lr.ph ], [ %41, %_ZN4llvm11raw_ostreamlsEPKc.exit12 ]
  br i1 %.019, label %_ZN4llvm11raw_ostreamlsEPKc.exit12, label %23

23:                                               ; preds = %22
  %24 = load ptr, ptr %0, align 8
  %25 = getelementptr inbounds nuw i8, ptr %24, i64 24
  %26 = load ptr, ptr %25, align 8
  %27 = getelementptr inbounds nuw i8, ptr %24, i64 32
  %28 = load ptr, ptr %27, align 8
  %29 = ptrtoint ptr %26 to i64
  %30 = ptrtoint ptr %28 to i64
  %31 = sub i64 %29, %30
  %32 = icmp ult i64 %31, 2
  br i1 %32, label %33, label %35

33:                                               ; preds = %23
  %34 = tail call noundef nonnull align 8 dereferenceable(48) ptr @_ZN4llvm11raw_ostream5writeEPKcm(ptr noundef nonnull align 8 dereferenceable(48) %24, ptr noundef nonnull @.str.10, i64 noundef 2) #22
  br label %_ZN4llvm11raw_ostreamlsEPKc.exit12

35:                                               ; preds = %23
  store i16 8236, ptr %28, align 1
  %36 = load ptr, ptr %27, align 8
  %37 = getelementptr inbounds nuw i8, ptr %36, i64 2
  store ptr %37, ptr %27, align 8
  br label %_ZN4llvm11raw_ostreamlsEPKc.exit12

_ZN4llvm11raw_ostreamlsEPKc.exit12:               ; preds = %35, %33, %22
  %38 = load ptr, ptr %.0918, align 8
  %39 = load ptr, ptr %0, align 8
  %40 = load ptr, ptr %21, align 8
  tail call void @_ZNK5clang4Attr11printPrettyERN4llvm11raw_ostreamERKNS_14PrintingPolicyE(ptr noundef nonnull align 8 dereferenceable(35) %38, ptr noundef nonnull align 8 dereferenceable(48) %39, ptr noundef nonnull align 8 dereferenceable(16) %40) #22
  %41 = getelementptr inbounds nuw i8, ptr %.0918, i64 8
  %.not = icmp eq ptr %41, %20
  br i1 %.not, label %._crit_edge, label %22

._crit_edge:                                      ; preds = %_ZN4llvm11raw_ostreamlsEPKc.exit12, %_ZN4llvm11raw_ostreamlsEPKc.exit
  %42 = load ptr, ptr %0, align 8
  %43 = getelementptr inbounds nuw i8, ptr %42, i64 24
  %44 = load ptr, ptr %43, align 8
  %45 = getelementptr inbounds nuw i8, ptr %42, i64 32
  %46 = load ptr, ptr %45, align 8
  %47 = icmp eq ptr %44, %46
  br i1 %47, label %48, label %50

48:                                               ; preds = %._crit_edge
  %49 = tail call noundef nonnull align 8 dereferenceable(48) ptr @_ZN4llvm11raw_ostream5writeEPKcm(ptr noundef nonnull align 8 dereferenceable(48) %42, ptr noundef nonnull @.str.3, i64 noundef 1) #22
  br label %_ZN4llvm11raw_ostreamlsEPKc.exit15

50:                                               ; preds = %._crit_edge
  store i8 41, ptr %46, align 1
  %51 = load ptr, ptr %45, align 8
  %52 = getelementptr inbounds nuw i8, ptr %51, i64 1
  store ptr %52, ptr %45, align 8
  br label %_ZN4llvm11raw_ostreamlsEPKc.exit15

_ZN4llvm11raw_ostreamlsEPKc.exit15:               ; preds = %48, %50
  ret void
}